; Function Attrs: mustprogress nofree nounwind willreturn memory(write, argmem: none, inaccessiblemem: readwrite) uwtable
define noalias noundef ptr @createSingletonIntVector(i32 noundef %0) local_unnamed_addr #9 {
Vec_IntPush.exit:
  %1 = tail call noalias dereferenceable_or_null(16) ptr @malloc(i64 noundef 16) #16
  %2 = getelementptr inbounds nuw i8, ptr %1, i64 4
  store i32 16, ptr %1, align 8, !tbaa !64
  %3 = tail call noalias dereferenceable_or_null(64) ptr @malloc(i64 noundef 64) #16
  %4 = getelementptr inbounds nuw i8, ptr %1, i64 8
  store ptr %3, ptr %4, align 8, !tbaa !9
  store i32 1, ptr %2, align 4, !tbaa !42
  store i32 %0, ptr %3, align 4, !tbaa !50
  ret ptr %1
}